target datalayout = "e-m:e-p270:32:32-p271:32:32-p272:64:64-i64:64-i128:128-f80:128-n8:16:32:64-S128"
target triple = "x86_64-unknown-linux-gnu"

%"class.testing::ExitedWithCode" = type { i32 }

; Function Attrs: mustprogress nounwind uwtable
define noundef zeroext i1 @_ZNK7testing14ExitedWithCodeclEi(ptr noundef nonnull align 4 dereferenceable(4) %this, i32 noundef %exit_status) #5 align 2 {
entry:
  %this.addr = alloca ptr, align 8
  %exit_status.addr = alloca i32, align 4
  store ptr %this, ptr %this.addr, align 8
  store i32 %exit_status, ptr %exit_status.addr, align 4
  %this1 = load ptr, ptr %this.addr, align 8
  %0 = load i32, ptr %exit_status.addr, align 4
  %and = and i32 %0, 127
  %cmp = icmp eq i32 %and, 0
  br i1 %cmp, label %land.rhs, label %land.end

land.rhs:                                         ; preds = %entry
  %1 = load i32, ptr %exit_status.addr, align 4
  %and2 = and i32 %1, 65280
  %shr = ashr i32 %and2, 8
  %exit_code_ = getelementptr inbounds %"class.testing::ExitedWithCode", ptr %this1, i32 0, i32 0
  %2 = load i32, ptr %exit_code_, align 4
  %cmp3 = icmp eq i32 %shr, %2
  br label %land.end

land.end:                                         ; preds = %land.rhs, %entry
  %3 = phi i1 [ false, %entry ], [ %cmp3, %land.rhs ]
  ret i1 %3
}