; Function Attrs: mustprogress nofree norecurse nosync nounwind willreturn memory(argmem: read) uwtable
define noundef zeroext i1 @_ZNK7testing14ExitedWithCodeclEi(ptr nocapture noundef nonnull readonly align 4 dereferenceable(4) %this, i32 noundef %exit_status) local_unnamed_addr #11 align 2 {
entry:
  %and = and i32 %exit_status, 127
  %cmp = icmp eq i32 %and, 0
  %and2 = lshr i32 %exit_status, 8
  %shr = and i32 %and2, 255
  %0 = load i32, ptr %this, align 4
  %cmp3 = icmp eq i32 %shr, %0
  %1 = select i1 %cmp, i1 %cmp3, i1 false
  ret i1 %1
}